	.cpu cortex-m4
	.arch armv7e-m
	.fpu fpv4-sp-d16
	.eabi_attribute 27, 1
	.eabi_attribute 28, 1
	.eabi_attribute 20, 1
	.eabi_attribute 21, 1
	.eabi_attribute 23, 3
	.eabi_attribute 24, 1
	.eabi_attribute 25, 1
	.eabi_attribute 26, 1
	.eabi_attribute 30, 4
	.eabi_attribute 34, 1
	.eabi_attribute 18, 4
	.file	"tm4c123_can_tx.c"
	.text
.Ltext0:
	.cfi_sections	.debug_frame
	.file 1 "tm4c123_can_tx.c"
	.align	1
	.global	CANIntHandler
	.syntax unified
	.thumb
	.thumb_func
	.type	CANIntHandler, %function
CANIntHandler:
.LFB1:
	.loc 1 55 26 view -0
	.cfi_startproc
	@ args = 0, pretend = 0, frame = 0
	@ frame_needed = 0, uses_anonymous_args = 0
	.loc 1 56 5 view .LVU1
	.loc 1 55 26 is_stmt 0 view .LVU2
	push	{r4, lr}
	.cfi_def_cfa_offset 8
	.cfi_offset 4, -8
	.cfi_offset 14, -4
	.loc 1 56 27 view .LVU3
	ldr	r0, .L4
	movs	r1, #0
	bl	CANIntStatus
.LVL0:
	.loc 1 58 8 view .LVU4
	cmp	r0, #32768
	.loc 1 56 27 view .LVU5
	mov	r4, r0
.LVL1:
	.loc 1 58 5 is_stmt 1 view .LVU6
	.loc 1 58 8 is_stmt 0 view .LVU7
	bne	.L2
	.loc 1 59 9 is_stmt 1 view .LVU8
	.loc 1 59 27 is_stmt 0 view .LVU9
	ldr	r0, .L4
.LVL2:
	.loc 1 59 27 view .LVU10
	movs	r1, #0
	bl	CANStatusGet
.LVL3:
	.loc 1 59 25 discriminator 1 view .LVU11
	ldr	r3, .L4+4
	.loc 1 60 20 view .LVU12
	movs	r2, #1
	.loc 1 59 25 discriminator 1 view .LVU13
	str	r0, [r3]
	.loc 1 60 9 is_stmt 1 view .LVU14
	.loc 1 60 20 is_stmt 0 view .LVU15
	strb	r2, [r3, #4]
.L1:
	.loc 1 66 1 view .LVU16
	pop	{r4, pc}
.LVL4:
.L2:
	.loc 1 61 12 is_stmt 1 view .LVU17
	.loc 1 61 15 is_stmt 0 view .LVU18
	cmp	r0, #1
	bne	.L1
.LBB4:
.LBI4:
	.loc 1 55 6 is_stmt 1 view .LVU19
.LBB5:
	.loc 1 62 9 view .LVU20
	mov	r1, r0
	ldr	r0, .L4
.LVL5:
	.loc 1 62 9 is_stmt 0 view .LVU21
	bl	CANIntClear
.LVL6:
	.loc 1 63 9 is_stmt 1 view .LVU22
	.loc 1 63 23 is_stmt 0 view .LVU23
	ldr	r3, .L4+4
	ldr	r2, [r3, #8]
	adds	r2, r2, #1
	str	r2, [r3, #8]
	.loc 1 64 9 is_stmt 1 view .LVU24
	.loc 1 64 19 is_stmt 0 view .LVU25
	strb	r4, [r3, #12]
.LBE5:
.LBE4:
	.loc 1 66 1 view .LVU26
	b	.L1
.L5:
	.align	2
.L4:
	.word	1074003968
	.word	.LANCHOR0
	.cfi_endproc
.LFE1:
	.size	CANIntHandler, .-CANIntHandler
	.align	1
	.global	delay
	.syntax unified
	.thumb
	.thumb_func
	.type	delay, %function
delay:
.LFB0:
	.loc 1 51 18 is_stmt 1 view -0
	.cfi_startproc
	@ args = 0, pretend = 0, frame = 0
	@ frame_needed = 0, uses_anonymous_args = 0
	@ link register save eliminated.
	.loc 1 52 5 view .LVU28
	ldr	r0, .L7
	b	SysCtlDelay
.LVL7:
.L8:
	.align	2
.L7:
	.word	5333333
	.cfi_endproc
.LFE0:
	.size	delay, .-delay
	.align	1
	.global	ConfigureUART
	.syntax unified
	.thumb
	.thumb_func
	.type	ConfigureUART, %function
ConfigureUART:
.LFB2:
	.loc 1 68 26 view -0
	.cfi_startproc
	@ args = 0, pretend = 0, frame = 0
	@ frame_needed = 0, uses_anonymous_args = 0
	.loc 1 69 5 view .LVU30
	.loc 1 68 26 is_stmt 0 view .LVU31
	push	{r3, lr}
	.cfi_def_cfa_offset 8
	.cfi_offset 3, -8
	.cfi_offset 14, -4
	.loc 1 69 5 view .LVU32
	ldr	r0, .L10
	bl	SysCtlPeripheralEnable
.LVL8:
	.loc 1 70 5 is_stmt 1 view .LVU33
	ldr	r0, .L10+4
	bl	SysCtlPeripheralEnable
.LVL9:
	.loc 1 71 5 view .LVU34
	movs	r0, #1
	bl	GPIOPinConfigure
.LVL10:
	.loc 1 72 5 view .LVU35
	movw	r0, #1025
	bl	GPIOPinConfigure
.LVL11:
	.loc 1 73 5 view .LVU36
	movs	r1, #3
	mov	r0, #1073758208
	bl	GPIOPinTypeUART
.LVL12:
	.loc 1 74 5 view .LVU37
	ldr	r0, .L10+8
	movs	r1, #5
	bl	UARTClockSourceSet
.LVL13:
	.loc 1 75 5 view .LVU38
	.loc 1 76 1 is_stmt 0 view .LVU39
	pop	{r3, lr}
	.cfi_restore 14
	.cfi_restore 3
	.cfi_def_cfa_offset 0
	.loc 1 75 5 view .LVU40
	ldr	r2, .L10+12
	mov	r1, #115200
	movs	r0, #0
	b	UARTStdioConfig
.LVL14:
.L11:
	.align	2
.L10:
	.word	-268433408
	.word	-268429312
	.word	1073790976
	.word	16000000
	.cfi_endproc
.LFE2:
	.size	ConfigureUART, .-ConfigureUART
	.align	1
	.global	initCAN
	.syntax unified
	.thumb
	.thumb_func
	.type	initCAN, %function
initCAN:
.LFB3:
	.loc 1 78 20 is_stmt 1 view -0
	.cfi_startproc
	@ args = 0, pretend = 0, frame = 0
	@ frame_needed = 0, uses_anonymous_args = 0
	.loc 1 79 5 view .LVU42
	.loc 1 78 20 is_stmt 0 view .LVU43
	push	{r4, lr}
	.cfi_def_cfa_offset 8
	.cfi_offset 4, -8
	.cfi_offset 14, -4
	.loc 1 79 5 view .LVU44
	ldr	r0, .L19
	.loc 1 83 13 discriminator 1 view .LVU45
	ldr	r4, .L19+4
	.loc 1 79 5 view .LVU46
	bl	SysCtlClockSet
.LVL15:
	.loc 1 82 5 is_stmt 1 view .LVU47
	ldr	r0, .L19+4
	bl	SysCtlPeripheralEnable
.LVL16:
	.loc 1 83 5 view .LVU48
.L13:
	.loc 1 83 49 discriminator 1 view .LVU49
	.loc 1 83 12 discriminator 1 view .LVU50
	.loc 1 83 13 is_stmt 0 discriminator 1 view .LVU51
	mov	r0, r4
	bl	SysCtlPeripheralReady
.LVL17:
	.loc 1 83 12 discriminator 1 view .LVU52
	cmp	r0, #0
	beq	.L13
	.loc 1 84 5 is_stmt 1 view .LVU53
	ldr	r0, .L19+8
	.loc 1 89 13 is_stmt 0 discriminator 1 view .LVU54
	ldr	r4, .L19+12
	.loc 1 84 5 view .LVU55
	bl	GPIOPinConfigure
.LVL18:
	.loc 1 85 5 is_stmt 1 view .LVU56
	ldr	r0, .L19+16
	bl	GPIOPinConfigure
.LVL19:
	.loc 1 86 5 view .LVU57
	ldr	r0, .L19+20
	movs	r1, #48
	bl	GPIOPinTypeCAN
.LVL20:
	.loc 1 88 5 view .LVU58
	ldr	r0, .L19+12
	bl	SysCtlPeripheralEnable
.LVL21:
	.loc 1 89 5 view .LVU59
.L14:
	.loc 1 89 49 discriminator 1 view .LVU60
	.loc 1 89 12 discriminator 1 view .LVU61
	.loc 1 89 13 is_stmt 0 discriminator 1 view .LVU62
	mov	r0, r4
	bl	SysCtlPeripheralReady
.LVL22:
	.loc 1 89 12 discriminator 1 view .LVU63
	cmp	r0, #0
	beq	.L14
	.loc 1 91 5 is_stmt 1 view .LVU64
	ldr	r0, .L19+24
	bl	CANInit
.LVL23:
	.loc 1 92 5 view .LVU65
	bl	SysCtlClockGet
.LVL24:
	.loc 1 92 5 is_stmt 0 discriminator 1 view .LVU66
	ldr	r2, .L19+28
	.loc 1 92 5 view .LVU67
	mov	r1, r0
	.loc 1 92 5 discriminator 1 view .LVU68
	ldr	r0, .L19+24
	bl	CANBitRateSet
.LVL25:
	.loc 1 94 5 is_stmt 1 view .LVU69
	ldr	r1, .L19+32
	ldr	r0, .L19+24
	bl	CANIntRegister
.LVL26:
	.loc 1 95 5 view .LVU70
	bl	IntMasterEnable
.LVL27:
	.loc 1 96 5 view .LVU71
	movs	r0, #55
	bl	IntEnable
.LVL28:
	.loc 1 97 5 view .LVU72
	ldr	r0, .L19+24
	movs	r1, #14
	bl	CANIntEnable
.LVL29:
	.loc 1 99 5 view .LVU73
	.loc 1 100 1 is_stmt 0 view .LVU74
	pop	{r4, lr}
	.cfi_restore 14
	.cfi_restore 4
	.cfi_def_cfa_offset 0
	.loc 1 99 5 view .LVU75
	ldr	r0, .L19+24
	b	CANEnable
.LVL30:
.L20:
	.align	2
.L19:
	.word	125844800
	.word	-268433407
	.word	69640
	.word	-268422144
	.word	70664
	.word	1073762304
	.word	1074003968
	.word	500000
	.word	CANIntHandler
	.cfi_endproc
.LFE3:
	.size	initCAN, .-initCAN
	.section	.rodata.str1.1,"aMS",%progbits,1
.LC0:
	.ascii	"\012\011TM4C123 CAN TX (500kbps)\012\012\000"
.LC1:
	.ascii	"ERR REG = 0x%08X\012\000"
.LC2:
	.ascii	"TX 0x%08X  ERR: %s\000"
.LC3:
	.ascii	" [BUS-OFF]\000"
.LC4:
	.ascii	" [ERR-PASSIVE]\000"
.LC5:
	.ascii	" [WARN]\000"
.LC6:
	.ascii	"\012\000"
.LC7:
	.ascii	"TX 0x%08X  OK (%u)\012\000"
	.section	.text.startup,"ax",%progbits
	.align	1
	.global	main
	.syntax unified
	.thumb
	.thumb_func
	.type	main, %function
main:
.LFB4:
	.loc 1 102 16 is_stmt 1 view -0
	.cfi_startproc
	@ args = 0, pretend = 0, frame = 24
	@ frame_needed = 0, uses_anonymous_args = 0
	.loc 1 103 5 view .LVU77
	.loc 1 102 16 is_stmt 0 view .LVU78
	push	{r4, r5, r6, lr}
	.cfi_def_cfa_offset 16
	.cfi_offset 4, -16
	.cfi_offset 5, -12
	.cfi_offset 6, -8
	.cfi_offset 14, -4
	sub	sp, sp, #24
	.cfi_def_cfa_offset 40
	.loc 1 103 5 view .LVU79
	bl	ConfigureUART
.LVL31:
	.loc 1 104 5 is_stmt 1 view .LVU80
	ldr	r0, .L40
.LBB6:
	.loc 1 119 20 is_stmt 0 view .LVU81
	ldr	r4, .L40+4
.LBE6:
	.loc 1 104 5 view .LVU82
	bl	UARTprintf
.LVL32:
	.loc 1 106 5 is_stmt 1 view .LVU83
	.loc 1 112 27 is_stmt 0 view .LVU84
	movs	r5, #0
	.loc 1 106 5 view .LVU85
	bl	initCAN
.LVL33:
	.loc 1 108 5 is_stmt 1 view .LVU86
	.loc 1 109 5 view .LVU87
	.loc 1 112 27 is_stmt 0 view .LVU88
	movs	r2, #1
	strd	r5, r2, [sp]
	.loc 1 113 5 is_stmt 1 view .LVU89
	.loc 1 114 27 is_stmt 0 view .LVU90
	strd	r5, r2, [sp, #8]
	.loc 1 115 5 is_stmt 1 view .LVU91
	.loc 1 115 28 is_stmt 0 view .LVU92
	movs	r2, #4
	str	r2, [sp, #16]
	.loc 1 116 5 is_stmt 1 view .LVU93
	.loc 1 116 29 is_stmt 0 view .LVU94
	str	sp, [sp, #20]
.L27:
	.loc 1 118 5 is_stmt 1 view .LVU95
.LBB8:
	.loc 1 119 9 view .LVU96
	.loc 1 122 9 is_stmt 0 view .LVU97
	ldr	r6, .L40+8
	.loc 1 119 20 view .LVU98
	strb	r5, [r4, #4]
	.loc 1 120 9 is_stmt 1 view .LVU99
	.loc 1 122 9 is_stmt 0 view .LVU100
	movs	r3, #0
	add	r2, sp, #4
	movs	r1, #1
	mov	r0, r6
	.loc 1 120 19 view .LVU101
	strb	r5, [r4, #12]
	.loc 1 122 9 is_stmt 1 view .LVU102
	bl	CANMessageSet
.LVL34:
	.loc 1 124 9 view .LVU103
	bl	delay
.LVL35:
	.loc 1 125 9 view .LVU104
	.loc 1 125 18 is_stmt 0 view .LVU105
	ldr	r1, [r6, #8]
.LVL36:
	.loc 1 126 9 is_stmt 1 view .LVU106
	ldr	r0, .L40+12
	bl	UARTprintf
.LVL37:
	.loc 1 128 9 view .LVU107
	.loc 1 128 13 is_stmt 0 view .LVU108
	ldrb	r3, [r4, #4]	@ zero_extendqisi2
	.loc 1 128 12 view .LVU109
	cbz	r3, .L22
.LBB7:
	.loc 1 129 13 is_stmt 1 view .LVU110
	.loc 1 129 44 is_stmt 0 view .LVU111
	ldr	r3, [r4]
.LVL38:
	.loc 1 130 13 is_stmt 1 view .LVU112
	ldr	r2, .L40+16
	ldr	r1, [sp]
	ldr	r0, .L40+20
	.loc 1 129 22 is_stmt 0 view .LVU113
	and	r3, r3, #7
.LVL39:
	.loc 1 130 13 view .LVU114
	ldr	r2, [r2, r3, lsl #2]
	bl	UARTprintf
.LVL40:
	.loc 1 131 13 is_stmt 1 view .LVU115
	.loc 1 131 33 is_stmt 0 view .LVU116
	ldr	r3, [r4]
	.loc 1 131 16 view .LVU117
	lsls	r1, r3, #24
	bpl	.L23
	.loc 1 132 17 is_stmt 1 view .LVU118
	ldr	r0, .L40+24
	bl	UARTprintf
.LVL41:
.L23:
	.loc 1 133 13 view .LVU119
	.loc 1 133 33 is_stmt 0 view .LVU120
	ldr	r3, [r4]
	.loc 1 133 16 view .LVU121
	lsls	r2, r3, #26
	bpl	.L24
	.loc 1 134 17 is_stmt 1 view .LVU122
	ldr	r0, .L40+28
	bl	UARTprintf
.LVL42:
.L24:
	.loc 1 135 13 view .LVU123
	.loc 1 135 33 is_stmt 0 view .LVU124
	ldr	r3, [r4]
	.loc 1 135 16 view .LVU125
	lsls	r3, r3, #25
	bpl	.L25
	.loc 1 136 17 is_stmt 1 view .LVU126
	ldr	r0, .L40+32
	bl	UARTprintf
.LVL43:
.L25:
	.loc 1 137 13 view .LVU127
	ldr	r0, .L40+36
	bl	UARTprintf
.LVL44:
.L26:
	.loc 1 137 13 is_stmt 0 view .LVU128
.LBE7:
	.loc 1 142 9 is_stmt 1 view .LVU129
	.loc 1 142 20 is_stmt 0 view .LVU130
	ldr	r3, [sp]
	adds	r3, r3, #1
	str	r3, [sp]
.LBE8:
	.loc 1 118 11 is_stmt 1 view .LVU131
	.loc 1 118 15 is_stmt 0 view .LVU132
	b	.L27
.L22:
.LBB9:
	.loc 1 138 16 is_stmt 1 view .LVU133
	.loc 1 138 20 is_stmt 0 view .LVU134
	ldrb	r3, [r4, #12]	@ zero_extendqisi2
	.loc 1 138 19 view .LVU135
	cmp	r3, #0
	beq	.L26
	.loc 1 139 13 is_stmt 1 view .LVU136
	ldr	r2, [r4, #8]
	ldr	r1, [sp]
	ldr	r0, .L40+40
	bl	UARTprintf
.LVL45:
	b	.L26
.L41:
	.align	2
.L40:
	.word	.LC0
	.word	.LANCHOR0
	.word	1074003968
	.word	.LC1
	.word	.LANCHOR1
	.word	.LC2
	.word	.LC3
	.word	.LC4
	.word	.LC5
	.word	.LC6
	.word	.LC7
.LBE9:
	.cfi_endproc
.LFE4:
	.size	main, .-main
	.global	g_ui32ErrStatus
	.global	g_bTxDone
	.global	g_bErrFlag
	.global	g_ui32MsgCount
	.section	.rodata.str1.1
.LC8:
	.ascii	"none\000"
.LC9:
	.ascii	"stuff error\000"
.LC10:
	.ascii	"format error\000"
.LC11:
	.ascii	"ack error\000"
.LC12:
	.ascii	"bit1 error\000"
.LC13:
	.ascii	"bit0 error\000"
.LC14:
	.ascii	"crc error\000"
.LC15:
	.ascii	"unused\000"
	.section	.rodata
	.align	2
	.set	.LANCHOR1,. + 0
	.type	lec_str, %object
	.size	lec_str, 32
lec_str:
	.word	.LC8
	.word	.LC9
	.word	.LC10
	.word	.LC11
	.word	.LC12
	.word	.LC13
	.word	.LC14
	.word	.LC15
	.bss
	.align	2
	.set	.LANCHOR0,. + 0
	.type	g_ui32ErrStatus, %object
	.size	g_ui32ErrStatus, 4
g_ui32ErrStatus:
	.space	4
	.type	g_bErrFlag, %object
	.size	g_bErrFlag, 1
g_bErrFlag:
	.space	1
	.space	3
	.type	g_ui32MsgCount, %object
	.size	g_ui32MsgCount, 4
g_ui32MsgCount:
	.space	4
	.type	g_bTxDone, %object
	.size	g_bTxDone, 1
g_bTxDone:
	.space	1
	.text
.Letext0:
	.file 2 "/usr/lib/gcc/arm-none-eabi/13.2.1/include/stdint.h"
	.file 3 "/home/armaan/ti/tivaware/driverlib/can.h"
	.file 4 "/home/armaan/ti/tivaware/utils/uartstdio.h"
	.file 5 "/home/armaan/ti/tivaware/driverlib/interrupt.h"
	.file 6 "/home/armaan/ti/tivaware/driverlib/sysctl.h"
	.file 7 "/home/armaan/ti/tivaware/driverlib/gpio.h"
	.file 8 "/home/armaan/ti/tivaware/driverlib/uart.h"